target datalayout = "e-m:e-p270:32:32-p271:32:32-p272:64:64-i64:64-i128:128-f80:128-n8:16:32:64-S128"
target triple = "x86_64-pc-linux-gnu"

%"struct.duckdb::StringDictionaryContainer" = type { i32, i32 }
%"struct.duckdb::dictionary_compression_header_t" = type { i32, i32, i32, i32, i32 }
%"class.duckdb::BufferHandle" = type { %"class.duckdb::shared_ptr", %"class.duckdb::optional_ptr" }
%"class.duckdb::shared_ptr" = type { %"class.std::shared_ptr" }
%"class.std::shared_ptr" = type { %"class.std::__shared_ptr" }
%"class.std::__shared_ptr" = type { ptr, %"class.std::__shared_count" }
%"class.std::__shared_count" = type { ptr }
%"class.duckdb::optional_ptr" = type { ptr }
%"class.duckdb::FileBuffer" = type { ptr, ptr, ptr, i64, i8, ptr, i64 }
%"class.duckdb::ColumnSegment" = type { %"class.duckdb::SegmentBase", ptr, %"struct.duckdb::LogicalType", i64, i8, %"class.duckdb::SegmentStatistics", %"class.duckdb::shared_ptr", %"class.std::reference_wrapper", i64, i64, i64, %"class.duckdb::unique_ptr.8" }
%"class.duckdb::SegmentBase" = type { i64, %"struct.std::atomic", %"struct.std::atomic.0", i64 }
%"struct.std::atomic" = type { %"struct.std::__atomic_base" }
%"struct.std::__atomic_base" = type { i64 }
%"struct.std::atomic.0" = type { %"struct.std::__atomic_base.1" }
%"struct.std::__atomic_base.1" = type { ptr }
%"struct.duckdb::LogicalType" = type { i8, i8, %"class.duckdb::shared_ptr.2" }
%"class.duckdb::shared_ptr.2" = type { %"class.std::shared_ptr.3" }
%"class.std::shared_ptr.3" = type { %"class.std::__shared_ptr.4" }
%"class.std::__shared_ptr.4" = type { ptr, %"class.std::__shared_count" }
%"class.duckdb::SegmentStatistics" = type { %"class.duckdb::BaseStatistics" }
%"class.duckdb::BaseStatistics" = type { %"struct.duckdb::LogicalType", i8, i8, i64, %union.anon, %"class.duckdb::unique_ptr" }
%union.anon = type { %"struct.duckdb::NumericStatsData" }
%"struct.duckdb::NumericStatsData" = type { i8, i8, %"struct.duckdb::NumericValueUnion", %"struct.duckdb::NumericValueUnion" }
%"struct.duckdb::NumericValueUnion" = type { %"union.duckdb::NumericValueUnion::Val" }
%"union.duckdb::NumericValueUnion::Val" = type { %"struct.duckdb::hugeint_t" }
%"struct.duckdb::hugeint_t" = type { i64, i64 }
%"class.duckdb::unique_ptr" = type { %"class.std::unique_ptr" }
%"class.std::unique_ptr" = type { %"struct.std::__uniq_ptr_data" }
%"struct.std::__uniq_ptr_data" = type { %"class.std::__uniq_ptr_impl" }
%"class.std::__uniq_ptr_impl" = type { %"class.std::tuple" }
%"class.std::tuple" = type { %"struct.std::_Tuple_impl" }
%"struct.std::_Tuple_impl" = type { %"struct.std::_Head_base.7" }
%"struct.std::_Head_base.7" = type { ptr }
%"class.std::reference_wrapper" = type { ptr }
%"class.duckdb::unique_ptr.8" = type { %"class.std::unique_ptr.9" }
%"class.std::unique_ptr.9" = type { %"struct.std::__uniq_ptr_data.10" }
%"struct.std::__uniq_ptr_data.10" = type { %"class.std::__uniq_ptr_impl.11" }
%"class.std::__uniq_ptr_impl.11" = type { %"class.std::tuple.12" }
%"class.std::tuple.12" = type { %"struct.std::_Tuple_impl.13" }
%"struct.std::_Tuple_impl.13" = type { %"struct.std::_Head_base.16" }
%"struct.std::_Head_base.16" = type { ptr }

; Function Attrs: mustprogress uwtable
define linkonce_odr noundef ptr @_ZN6duckdb12optional_ptrINS_10FileBufferELb1EEptEv(ptr noundef nonnull align 8 dereferenceable(8) %0) #0 comdat align 2 {
  %2 = alloca ptr, align 8
  store ptr %0, ptr %2, align 8, !tbaa !303
  %3 = load ptr, ptr %2, align 8
  call void @_ZNK6duckdb12optional_ptrINS_10FileBufferELb1EE10CheckValidEv(ptr noundef nonnull align 8 dereferenceable(8) %3)
  %4 = getelementptr inbounds nuw %"class.duckdb::optional_ptr", ptr %3, i32 0, i32 0
  %5 = load ptr, ptr %4, align 8, !tbaa !305
  ret ptr %5
}

; Function Attrs: mustprogress nounwind uwtable
define linkonce_odr void @_ZN6duckdb5StoreIjEEvRKT_Ph(ptr noundef nonnull align 4 dereferenceable(4) %0, ptr noundef %1) #3 comdat {
  %3 = alloca ptr, align 8
  %4 = alloca ptr, align 8
  store ptr %0, ptr %3, align 8, !tbaa !68
  store ptr %1, ptr %4, align 8, !tbaa !66
  %5 = load ptr, ptr %4, align 8, !tbaa !66
  %6 = load ptr, ptr %3, align 8, !tbaa !68
  call void @llvm.memcpy.p0.p0.i64(ptr align 1 %5, ptr align 1 %6, i64 4, i1 false)
  ret void
}

; Function Attrs: mustprogress nounwind uwtable
define linkonce_odr noundef ptr @_ZN6duckdb13data_ptr_castIjEEPhPT_(ptr noundef %0) #3 comdat {
  %2 = alloca ptr, align 8
  store ptr %0, ptr %2, align 8, !tbaa !68
  %3 = load ptr, ptr %2, align 8, !tbaa !68
  ret ptr %3
}

; Function Attrs: mustprogress nounwind uwtable
define linkonce_odr noundef i64 @_ZN6duckdb13ColumnSegment14GetBlockOffsetEv(ptr noundef nonnull align 8 dereferenceable(224) %0) #3 comdat align 2 {
  %2 = alloca ptr, align 8
  store ptr %0, ptr %2, align 8, !tbaa !8
  %3 = load ptr, ptr %2, align 8
  %4 = getelementptr inbounds nuw %"class.duckdb::ColumnSegment", ptr %3, i32 0, i32 9
  %5 = load i64, ptr %4, align 8, !tbaa !23
  ret i64 %5
}

; Function Attrs: inlinehint mustprogress uwtable
define linkonce_odr noundef ptr @_ZN6duckdb12BufferHandle3PtrEv(ptr noundef nonnull align 8 dereferenceable(24) %0) #2 comdat align 2 {
  %2 = alloca ptr, align 8
  store ptr %0, ptr %2, align 8, !tbaa !11
  %3 = load ptr, ptr %2, align 8
  %4 = getelementptr inbounds nuw %"class.duckdb::BufferHandle", ptr %3, i32 0, i32 1
  %5 = call noundef ptr @_ZN6duckdb12optional_ptrINS_10FileBufferELb1EEptEv(ptr noundef nonnull align 8 dereferenceable(8) %4)
  %6 = getelementptr inbounds nuw %"class.duckdb::FileBuffer", ptr %5, i32 0, i32 2
  %7 = load ptr, ptr %6, align 8, !tbaa !18
  ret ptr %7
}

; Function Attrs: mustprogress uwtable
define void @_ZN6duckdb21DictionaryCompression13SetDictionaryERNS_13ColumnSegmentERNS_12BufferHandleENS_25StringDictionaryContainerE(ptr noundef nonnull align 8 dereferenceable(224) %0, ptr noundef nonnull align 8 dereferenceable(24) %1, i64 %2) #0 align 2 {
  %4 = alloca %"struct.duckdb::StringDictionaryContainer", align 4
  %5 = alloca ptr, align 8
  %6 = alloca ptr, align 8
  %7 = alloca ptr, align 8
  store i64 %2, ptr %4, align 4
  store ptr %0, ptr %5, align 8, !tbaa !8
  store ptr %1, ptr %6, align 8, !tbaa !11
  call void @llvm.lifetime.start.p0(i64 8, ptr %7) #19
  %8 = load ptr, ptr %6, align 8, !tbaa !11
  %9 = call noundef ptr @_ZN6duckdb12BufferHandle3PtrEv(ptr noundef nonnull align 8 dereferenceable(24) %8)
  %10 = load ptr, ptr %5, align 8, !tbaa !8
  %11 = call noundef i64 @_ZN6duckdb13ColumnSegment14GetBlockOffsetEv(ptr noundef nonnull align 8 dereferenceable(224) %10)
  %12 = getelementptr inbounds nuw i8, ptr %9, i64 %11
  store ptr %12, ptr %7, align 8, !tbaa !13
  %13 = getelementptr inbounds nuw %"struct.duckdb::StringDictionaryContainer", ptr %4, i32 0, i32 0
  %14 = load ptr, ptr %7, align 8, !tbaa !13
  %15 = getelementptr inbounds nuw %"struct.duckdb::dictionary_compression_header_t", ptr %14, i32 0, i32 0
  %16 = call noundef ptr @_ZN6duckdb13data_ptr_castIjEEPhPT_(ptr noundef %15)
  call void @_ZN6duckdb5StoreIjEEvRKT_Ph(ptr noundef nonnull align 4 dereferenceable(4) %13, ptr noundef %16)
  %17 = getelementptr inbounds nuw %"struct.duckdb::StringDictionaryContainer", ptr %4, i32 0, i32 1
  %18 = load ptr, ptr %7, align 8, !tbaa !13
  %19 = getelementptr inbounds nuw %"struct.duckdb::dictionary_compression_header_t", ptr %18, i32 0, i32 1
  %20 = call noundef ptr @_ZN6duckdb13data_ptr_castIjEEPhPT_(ptr noundef %19)
  call void @_ZN6duckdb5StoreIjEEvRKT_Ph(ptr noundef nonnull align 4 dereferenceable(4) %17, ptr noundef %20)
  call void @llvm.lifetime.end.p0(i64 8, ptr %7) #19
  ret void
}