; Function Attrs: mustprogress uwtable
define void @_ZN6duckdb21DictionaryCompression13SetDictionaryERNS_13ColumnSegmentERNS_12BufferHandleENS_25StringDictionaryContainerE(ptr noundef nonnull readonly align 8 captures(none) dereferenceable(224) %0, ptr noundef nonnull align 8 dereferenceable(24) %1, i64 %2) local_unnamed_addr #0 align 2 {
  %.sroa.0.0.extract.trunc = trunc i64 %2 to i32
  %.sroa.2.0.extract.shift = lshr i64 %2, 32
  %.sroa.2.0.extract.trunc = trunc nuw i64 %.sroa.2.0.extract.shift to i32
  %4 = getelementptr inbounds nuw i8, ptr %1, i64 16
  tail call void @_ZNK6duckdb12optional_ptrINS_10FileBufferELb1EE10CheckValidEv(ptr noundef nonnull align 8 dereferenceable(8) %4)
  %5 = load ptr, ptr %4, align 8, !tbaa !3
  %6 = getelementptr inbounds nuw i8, ptr %5, i64 16
  %7 = load ptr, ptr %6, align 8, !tbaa !9
  %8 = getelementptr inbounds nuw i8, ptr %0, i64 200
  %9 = load i64, ptr %8, align 8, !tbaa !15
  %10 = getelementptr inbounds nuw i8, ptr %7, i64 %9
  store i32 %.sroa.0.0.extract.trunc, ptr %10, align 1
  %11 = getelementptr inbounds nuw i8, ptr %10, i64 4
  store i32 %.sroa.2.0.extract.trunc, ptr %11, align 1
  ret void
}